; ModuleID = 'probe1.859ce008b2bb8da4-cgu.0'
source_filename = "probe1.859ce008b2bb8da4-cgu.0"
target datalayout = "e-m:e-i8:8:32-i16:16:32-i64:64-i128:128-n32:64-S128"
target triple = "aarch64-unknown-linux-gnu"

; core::f64::<impl f64>::to_int_unchecked
; Function Attrs: inlinehint uwtable
define i32 @"_ZN4core3f6421_$LT$impl$u20$f64$GT$16to_int_unchecked17hb3f96b1052eaaa0cE"(double %self) unnamed_addr #0 {
start:
; call <f64 as core::convert::num::FloatToInt<i32>>::to_int_unchecked
  %_0 = call i32 @"_ZN65_$LT$f64$u20$as$u20$core..convert..num..FloatToInt$LT$i32$GT$$GT$16to_int_unchecked17h176162c8878b3f4aE"(double %self)
  ret i32 %_0
}

; <f64 as core::convert::num::FloatToInt<i32>>::to_int_unchecked
; Function Attrs: inlinehint uwtable
define internal i32 @"_ZN65_$LT$f64$u20$as$u20$core..convert..num..FloatToInt$LT$i32$GT$$GT$16to_int_unchecked17h176162c8878b3f4aE"(double %self) unnamed_addr #0 {
start:
  %0 = alloca i32, align 4
  %1 = fptosi double %self to i32
  store i32 %1, ptr %0, align 4
  %_0 = load i32, ptr %0, align 4, !noundef !2
  ret i32 %_0
}

; probe1::probe
; Function Attrs: uwtable
define void @_ZN6probe15probe17hd610135bce0f4430E() unnamed_addr #1 {
start:
; call core::f64::<impl f64>::to_int_unchecked
  %_1 = call i32 @"_ZN4core3f6421_$LT$impl$u20$f64$GT$16to_int_unchecked17hb3f96b1052eaaa0cE"(double 1.000000e+00)
  ret void
}

attributes #0 = { inlinehint uwtable "probe-stack"="inline-asm" "target-cpu"="generic" "target-features"="+v8a,+outline-atomics" }
attributes #1 = { uwtable "probe-stack"="inline-asm" "target-cpu"="generic" "target-features"="+v8a,+outline-atomics" }

!llvm.module.flags = !{!0}
!llvm.ident = !{!1}

!0 = !{i32 8, !"PIC Level", i32 2}
!1 = !{!"rustc version 1.77.0 (aedd173a2 2024-03-17)"}
!2 = !{}
